target datalayout = "e-m:e-p270:32:32-p271:32:32-p272:64:64-i64:64-i128:128-f80:128-n8:16:32:64-S128"
target triple = "x86_64-pc-linux-gnu"

%struct.AVFilterContext = type { ptr, ptr, ptr, ptr, ptr, i32, ptr, ptr, i32, ptr, ptr, i32, i32, ptr, ptr, ptr, ptr, i32, ptr, i32, i32 }
%struct.BLRContext = type { ptr, i32, i32, i32, float, float, i8, i8, i32, i32, i32, i32, i32, double, i64, ptr, ptr, ptr, ptr, ptr }

; Function Attrs: cold nounwind optsize uwtable
define internal i32 @blurdetect_init(ptr noundef %0) #0 {
  %2 = alloca ptr, align 8
  %3 = alloca ptr, align 8
  store ptr %0, ptr %2, align 8, !tbaa !4
  call void @llvm.lifetime.start.p0(i64 8, ptr %3) #9
  %4 = load ptr, ptr %2, align 8, !tbaa !4
  %5 = getelementptr inbounds nuw %struct.AVFilterContext, ptr %4, i32 0, i32 9
  %6 = load ptr, ptr %5, align 8, !tbaa !9
  store ptr %6, ptr %3, align 8, !tbaa !22
  %7 = load ptr, ptr %3, align 8, !tbaa !22
  %8 = getelementptr inbounds nuw %struct.BLRContext, ptr %7, i32 0, i32 4
  %9 = load float, ptr %8, align 4, !tbaa !24
  %10 = fpext nsz float %9 to double
  %11 = call nsz double @llvm.fmuladd.f64(double %10, double 2.550000e+02, double 5.000000e-01)
  %12 = fptoui double %11 to i8
  %13 = load ptr, ptr %3, align 8, !tbaa !22
  %14 = getelementptr inbounds nuw %struct.BLRContext, ptr %13, i32 0, i32 6
  store i8 %12, ptr %14, align 4, !tbaa !31
  %15 = load ptr, ptr %3, align 8, !tbaa !22
  %16 = getelementptr inbounds nuw %struct.BLRContext, ptr %15, i32 0, i32 5
  %17 = load float, ptr %16, align 8, !tbaa !32
  %18 = fpext nsz float %17 to double
  %19 = call nsz double @llvm.fmuladd.f64(double %18, double 2.550000e+02, double 5.000000e-01)
  %20 = fptoui double %19 to i8
  %21 = load ptr, ptr %3, align 8, !tbaa !22
  %22 = getelementptr inbounds nuw %struct.BLRContext, ptr %21, i32 0, i32 7
  store i8 %20, ptr %22, align 1, !tbaa !33
  call void @llvm.lifetime.end.p0(i64 8, ptr %3) #9
  ret i32 0
}