; Function Attrs: cold mustprogress nofree norecurse nosync nounwind optsize willreturn memory(readwrite, inaccessiblemem: none) uwtable
define internal noundef i32 @blurdetect_init(ptr noundef readonly captures(none) %0) #0 {
  %2 = getelementptr inbounds nuw i8, ptr %0, i64 72
  %3 = load ptr, ptr %2, align 8, !tbaa !4
  %4 = getelementptr inbounds nuw i8, ptr %3, i64 20
  %5 = load float, ptr %4, align 4, !tbaa !20
  %6 = fpext nsz float %5 to double
  %7 = tail call nsz double @llvm.fmuladd.f64(double %6, double 2.550000e+02, double 5.000000e-01)
  %8 = fptoui double %7 to i8
  %9 = getelementptr inbounds nuw i8, ptr %3, i64 28
  store i8 %8, ptr %9, align 4, !tbaa !27
  %10 = getelementptr inbounds nuw i8, ptr %3, i64 24
  %11 = load float, ptr %10, align 8, !tbaa !28
  %12 = fpext nsz float %11 to double
  %13 = tail call nsz double @llvm.fmuladd.f64(double %12, double 2.550000e+02, double 5.000000e-01)
  %14 = fptoui double %13 to i8
  %15 = getelementptr inbounds nuw i8, ptr %3, i64 29
  store i8 %14, ptr %15, align 1, !tbaa !29
  ret i32 0
}